target datalayout = "e-m:e-p270:32:32-p271:32:32-p272:64:64-i64:64-i128:128-f80:128-n8:16:32:64-S128"
target triple = "x86_64-pc-linux-gnu"

%struct.Ssw_Pars_t_ = type { i32, i32, i32, i32, i32, i32, i32, i32, i32, i32, i32, i32, i32, i32, i32, i32, i32, i32, i32, i32, i32, i32, i32, i32, i32, i32, i32, i32, i32, i32, i32, i32, i32, i32, i32, i32, i32, i32, i32, i32, ptr, ptr }

; Function Attrs: nounwind uwtable
define void @Ssw_ManSetDefaultParams(ptr noundef %0) #0 {
  %2 = alloca ptr, align 8
  store ptr %0, ptr %2, align 8
  %3 = load ptr, ptr %2, align 8
  call void @llvm.memset.p0.i64(ptr align 8 %3, i8 0, i64 176, i1 false)
  %4 = load ptr, ptr %2, align 8
  %5 = getelementptr inbounds %struct.Ssw_Pars_t_, ptr %4, i32 0, i32 0
  store i32 0, ptr %5, align 8
  %6 = load ptr, ptr %2, align 8
  %7 = getelementptr inbounds %struct.Ssw_Pars_t_, ptr %6, i32 0, i32 1
  store i32 0, ptr %7, align 4
  %8 = load ptr, ptr %2, align 8
  %9 = getelementptr inbounds %struct.Ssw_Pars_t_, ptr %8, i32 0, i32 3
  store i32 1, ptr %9, align 4
  %10 = load ptr, ptr %2, align 8
  %11 = getelementptr inbounds %struct.Ssw_Pars_t_, ptr %10, i32 0, i32 4
  store i32 2, ptr %11, align 8
  %12 = load ptr, ptr %2, align 8
  %13 = getelementptr inbounds %struct.Ssw_Pars_t_, ptr %12, i32 0, i32 5
  store i32 0, ptr %13, align 4
  %14 = load ptr, ptr %2, align 8
  %15 = getelementptr inbounds %struct.Ssw_Pars_t_, ptr %14, i32 0, i32 6
  store i32 0, ptr %15, align 8
  %16 = load ptr, ptr %2, align 8
  %17 = getelementptr inbounds %struct.Ssw_Pars_t_, ptr %16, i32 0, i32 8
  store i32 1000, ptr %17, align 8
  %18 = load ptr, ptr %2, align 8
  %19 = getelementptr inbounds %struct.Ssw_Pars_t_, ptr %18, i32 0, i32 9
  store i32 5000000, ptr %19, align 4
  %20 = load ptr, ptr %2, align 8
  %21 = getelementptr inbounds %struct.Ssw_Pars_t_, ptr %20, i32 0, i32 10
  store i32 100, ptr %21, align 8
  %22 = load ptr, ptr %2, align 8
  %23 = getelementptr inbounds %struct.Ssw_Pars_t_, ptr %22, i32 0, i32 11
  store i32 -1, ptr %23, align 4
  %24 = load ptr, ptr %2, align 8
  %25 = getelementptr inbounds %struct.Ssw_Pars_t_, ptr %24, i32 0, i32 13
  store i32 1000, ptr %25, align 4
  %26 = load ptr, ptr %2, align 8
  %27 = getelementptr inbounds %struct.Ssw_Pars_t_, ptr %26, i32 0, i32 14
  store i32 -1, ptr %27, align 8
  %28 = load ptr, ptr %2, align 8
  %29 = getelementptr inbounds %struct.Ssw_Pars_t_, ptr %28, i32 0, i32 17
  store i32 0, ptr %29, align 4
  %30 = load ptr, ptr %2, align 8
  %31 = getelementptr inbounds %struct.Ssw_Pars_t_, ptr %30, i32 0, i32 18
  store i32 0, ptr %31, align 8
  %32 = load ptr, ptr %2, align 8
  %33 = getelementptr inbounds %struct.Ssw_Pars_t_, ptr %32, i32 0, i32 19
  store i32 0, ptr %33, align 4
  %34 = load ptr, ptr %2, align 8
  %35 = getelementptr inbounds %struct.Ssw_Pars_t_, ptr %34, i32 0, i32 20
  store i32 0, ptr %35, align 8
  %36 = load ptr, ptr %2, align 8
  %37 = getelementptr inbounds %struct.Ssw_Pars_t_, ptr %36, i32 0, i32 21
  store i32 0, ptr %37, align 4
  %38 = load ptr, ptr %2, align 8
  %39 = getelementptr inbounds %struct.Ssw_Pars_t_, ptr %38, i32 0, i32 22
  store i32 0, ptr %39, align 8
  %40 = load ptr, ptr %2, align 8
  %41 = getelementptr inbounds %struct.Ssw_Pars_t_, ptr %40, i32 0, i32 23
  store i32 0, ptr %41, align 4
  %42 = load ptr, ptr %2, align 8
  %43 = getelementptr inbounds %struct.Ssw_Pars_t_, ptr %42, i32 0, i32 28
  store i32 0, ptr %43, align 8
  %44 = load ptr, ptr %2, align 8
  %45 = getelementptr inbounds %struct.Ssw_Pars_t_, ptr %44, i32 0, i32 30
  store i32 0, ptr %45, align 8
  %46 = load ptr, ptr %2, align 8
  %47 = getelementptr inbounds %struct.Ssw_Pars_t_, ptr %46, i32 0, i32 31
  store i32 0, ptr %47, align 4
  %48 = load ptr, ptr %2, align 8
  %49 = getelementptr inbounds %struct.Ssw_Pars_t_, ptr %48, i32 0, i32 33
  store i32 0, ptr %49, align 4
  %50 = load ptr, ptr %2, align 8
  %51 = getelementptr inbounds %struct.Ssw_Pars_t_, ptr %50, i32 0, i32 34
  store i32 1000, ptr %51, align 8
  %52 = load ptr, ptr %2, align 8
  %53 = getelementptr inbounds %struct.Ssw_Pars_t_, ptr %52, i32 0, i32 35
  store i32 50, ptr %53, align 4
  %54 = load ptr, ptr %2, align 8
  %55 = getelementptr inbounds %struct.Ssw_Pars_t_, ptr %54, i32 0, i32 36
  store i32 5000, ptr %55, align 8
  %56 = load ptr, ptr %2, align 8
  %57 = getelementptr inbounds %struct.Ssw_Pars_t_, ptr %56, i32 0, i32 37
  store i32 250, ptr %57, align 4
  %58 = load ptr, ptr %2, align 8
  %59 = getelementptr inbounds %struct.Ssw_Pars_t_, ptr %58, i32 0, i32 38
  store i32 0, ptr %59, align 8
  ret void
}

; Function Attrs: nounwind uwtable
define void @Ssw_ManSetDefaultParamsLcorr(ptr noundef %0) #0 {
  %2 = alloca ptr, align 8
  store ptr %0, ptr %2, align 8
  %3 = load ptr, ptr %2, align 8
  call void @Ssw_ManSetDefaultParams(ptr noundef %3)
  %4 = load ptr, ptr %2, align 8
  %5 = getelementptr inbounds %struct.Ssw_Pars_t_, ptr %4, i32 0, i32 33
  store i32 1, ptr %5, align 4
  %6 = load ptr, ptr %2, align 8
  %7 = getelementptr inbounds %struct.Ssw_Pars_t_, ptr %6, i32 0, i32 8
  store i32 10000, ptr %7, align 8
  ret void
}