; Function Attrs: mustprogress nofree norecurse nosync nounwind willreturn memory(argmem: write) uwtable
define void @Ssw_ManSetDefaultParamsLcorr(ptr noundef writeonly captures(none) initializes((0, 176)) %0) local_unnamed_addr #0 {
  %2 = getelementptr inbounds nuw i8, ptr %0, i64 12
  tail call void @llvm.memset.p0.i64(ptr noundef nonnull align 8 dereferenceable(176) %0, i8 0, i64 176, i1 false)
  store i32 1, ptr %2, align 4
  %3 = getelementptr inbounds nuw i8, ptr %0, i64 16
  store i32 2, ptr %3, align 8
  %4 = getelementptr inbounds nuw i8, ptr %0, i64 32
  %5 = getelementptr inbounds nuw i8, ptr %0, i64 36
  store i32 5000000, ptr %5, align 4
  %6 = getelementptr inbounds nuw i8, ptr %0, i64 40
  store i32 100, ptr %6, align 8
  %7 = getelementptr inbounds nuw i8, ptr %0, i64 44
  store i32 -1, ptr %7, align 4
  %8 = getelementptr inbounds nuw i8, ptr %0, i64 52
  store i32 1000, ptr %8, align 4
  %9 = getelementptr inbounds nuw i8, ptr %0, i64 56
  store i32 -1, ptr %9, align 8
  %10 = getelementptr inbounds nuw i8, ptr %0, i64 68
  %11 = getelementptr inbounds nuw i8, ptr %0, i64 132
  %12 = getelementptr inbounds nuw i8, ptr %0, i64 136
  tail call void @llvm.memset.p0.i64(ptr noundef nonnull align 4 dereferenceable(28) %10, i8 0, i64 28, i1 false)
  store i32 1000, ptr %12, align 8
  %13 = getelementptr inbounds nuw i8, ptr %0, i64 140
  store i32 50, ptr %13, align 4
  %14 = getelementptr inbounds nuw i8, ptr %0, i64 144
  store i32 5000, ptr %14, align 8
  %15 = getelementptr inbounds nuw i8, ptr %0, i64 148
  store i32 250, ptr %15, align 4
  store i32 1, ptr %11, align 4
  store i32 10000, ptr %4, align 8
  ret void
}